; Function Attrs: nounwind uwtable
define void @zif_dl(ptr noundef %0, ptr nocapture noundef writeonly %1) local_unnamed_addr #0 {
  %3 = alloca ptr, align 8
  %4 = getelementptr inbounds i8, ptr %0, i64 44
  %5 = load i32, ptr %4, align 4
  %cond = icmp eq i32 %5, 1
  br i1 %cond, label %6, label %.thread82

.thread82:                                        ; preds = %2
  tail call void @zend_wrong_parameters_count_error(i32 noundef 1, i32 noundef 1) #4
  br label %14

6:                                                ; preds = %2
  %7 = getelementptr inbounds i8, ptr %0, i64 80
  %8 = getelementptr inbounds i8, ptr %0, i64 88
  %9 = load i8, ptr %8, align 8
  %10 = icmp eq i8 %9, 6
  br i1 %10, label %.thread, label %12

.thread:                                          ; preds = %6
  %11 = load ptr, ptr %7, align 8
  store ptr %11, ptr %3, align 8
  br label %15

12:                                               ; preds = %6
  %13 = call zeroext i1 @zend_parse_arg_str_slow(ptr noundef nonnull %7, ptr noundef nonnull %3, i32 noundef 1) #4
  br i1 %13, label %._crit_edge, label %14

._crit_edge:                                      ; preds = %12
  %.pre = load ptr, ptr %3, align 8
  br label %15

14:                                               ; preds = %12, %.thread82
  %.093 = phi i32 [ 1, %.thread82 ], [ 9, %12 ]
  %.06692 = phi i32 [ 0, %.thread82 ], [ 1, %12 ]
  %.06791 = phi i32 [ 0, %.thread82 ], [ 4, %12 ]
  %.06890 = phi ptr [ null, %.thread82 ], [ %7, %12 ]
  call void @zend_wrong_parameter_error(i32 noundef %.093, i32 noundef %.06692, ptr noundef null, i32 noundef %.06791, ptr noundef %.06890) #4
  br label %32

15:                                               ; preds = %._crit_edge, %.thread
  %16 = phi ptr [ %.pre, %._crit_edge ], [ %11, %.thread ]
  %17 = getelementptr inbounds i8, ptr %16, i64 24
  %18 = load i8, ptr getelementptr inbounds (%struct._php_core_globals, ptr @core_globals, i64 0, i32 2), align 1
  %19 = and i8 %18, 1
  %.not76 = icmp eq i8 %19, 0
  br i1 %.not76, label %20, label %22

20:                                               ; preds = %15
  call void (ptr, i32, ptr, ...) @php_error_docref(ptr noundef null, i32 noundef 2, ptr noundef nonnull @.str) #4
  %21 = getelementptr inbounds i8, ptr %1, i64 8
  store i32 2, ptr %21, align 8
  br label %32

22:                                               ; preds = %15
  %23 = getelementptr inbounds i8, ptr %16, i64 16
  %24 = load i64, ptr %23, align 8
  %25 = icmp ugt i64 %24, 4095
  br i1 %25, label %26, label %28

26:                                               ; preds = %22
  call void (ptr, i32, ptr, ...) @php_error_docref(ptr noundef null, i32 noundef 2, ptr noundef nonnull @.str.1, i32 noundef 4096) #4
  %27 = getelementptr inbounds i8, ptr %1, i64 8
  store i32 2, ptr %27, align 8
  br label %32

28:                                               ; preds = %22
  %29 = call i32 @php_load_extension(ptr noundef nonnull %17, i32 noundef 2, i32 noundef 0), !range !4
  %.not = icmp eq i32 %29, -1
  %spec.select.i = select i1 %.not, i32 2, i32 3
  %30 = getelementptr inbounds i8, ptr %1, i64 8
  store i32 %spec.select.i, ptr %30, align 8
  br i1 %.not, label %32, label %31

31:                                               ; preds = %28
  store i8 1, ptr getelementptr inbounds (%struct._zend_executor_globals, ptr @executor_globals, i64 0, i32 26), align 1
  br label %32

32:                                               ; preds = %31, %28, %26, %20, %14
  ret void
}